; Function Attrs: mustprogress uwtable
define hidden void @_ZN6google8protobuf2io17CodedOutputStreamC2EPNS1_20ZeroCopyOutputStreamEb(ptr noundef nonnull align 8 dereferenceable(80) %0, ptr noundef %1, i1 noundef zeroext %2) unnamed_addr #4 align 2 personality ptr @__gxx_personality_v0 {
  %4 = alloca ptr, align 8
  %5 = alloca i32, align 4
  %6 = load atomic i8, ptr @_ZN6google8protobuf2io17CodedOutputStream36default_serialization_deterministic_E monotonic, align 1
  %7 = getelementptr inbounds nuw i8, ptr %0, i64 64
  %8 = and i8 %6, 1
  %9 = getelementptr inbounds nuw i8, ptr %0, i64 16
  store ptr %9, ptr %0, align 8, !tbaa !57
  %10 = getelementptr inbounds nuw i8, ptr %0, i64 8
  store ptr %9, ptr %10, align 8, !tbaa !58
  %11 = getelementptr inbounds nuw i8, ptr %0, i64 48
  store ptr %1, ptr %11, align 8, !tbaa !53
  %12 = getelementptr inbounds nuw i8, ptr %0, i64 56
  store i8 0, ptr %12, align 8, !tbaa !60
  %13 = getelementptr inbounds nuw i8, ptr %0, i64 57
  store i8 0, ptr %13, align 1, !tbaa !56
  %14 = getelementptr inbounds nuw i8, ptr %0, i64 58
  store i8 %8, ptr %14, align 2, !tbaa !71
  store ptr %9, ptr %7, align 8, !tbaa !62
  %15 = getelementptr inbounds nuw i8, ptr %0, i64 72
  %16 = load ptr, ptr %1, align 8, !tbaa !18
  %17 = getelementptr inbounds nuw i8, ptr %16, i64 32
  %18 = load ptr, ptr %17, align 8
  %19 = tail call noundef i64 %18(ptr noundef nonnull align 8 dereferenceable(8) %1)
  store i64 %19, ptr %15, align 8, !tbaa !72
  br i1 %2, label %20, label %36

20:                                               ; preds = %3
  call void @llvm.lifetime.start.p0(i64 8, ptr nonnull %4) #18
  call void @llvm.lifetime.start.p0(i64 4, ptr nonnull %5) #18
  %21 = load ptr, ptr %1, align 8, !tbaa !18
  %22 = getelementptr inbounds nuw i8, ptr %21, i64 16
  %23 = load ptr, ptr %22, align 8
  %24 = call noundef zeroext i1 %23(ptr noundef nonnull align 8 dereferenceable(8) %1, ptr noundef nonnull %4, ptr noundef nonnull %5)
  %25 = load i32, ptr %5, align 4
  %26 = icmp ne i32 %25, 0
  %or.cond.not = select i1 %24, i1 %26, i1 false
  br i1 %or.cond.not, label %27, label %35

27:                                               ; preds = %20
  %28 = load ptr, ptr %4, align 8, !tbaa !33
  %29 = icmp sgt i32 %25, 16
  %30 = zext nneg i32 %25 to i64
  %31 = getelementptr inbounds nuw i8, ptr %28, i64 %30
  %32 = getelementptr inbounds i8, ptr %31, i64 -16
  %33 = sext i32 %25 to i64
  %34 = getelementptr inbounds i8, ptr %9, i64 %33
  %.sink9.i = select i1 %29, ptr %32, ptr %34
  %.sink.i = select i1 %29, ptr null, ptr %28
  %.0.i = select i1 %29, ptr %28, ptr %9
  store ptr %.sink9.i, ptr %0, align 8, !tbaa !57
  store ptr %.sink.i, ptr %10, align 8, !tbaa !58
  store ptr %.0.i, ptr %7, align 8, !tbaa !74
  br label %35

35:                                               ; preds = %20, %27
  call void @llvm.lifetime.end.p0(i64 4, ptr nonnull %5) #18
  call void @llvm.lifetime.end.p0(i64 8, ptr nonnull %4) #18
  br label %36

36:                                               ; preds = %35, %3
  ret void
}